target datalayout = "e-m:e-p270:32:32-p271:32:32-p272:64:64-i64:64-i128:128-f80:128-n8:16:32:64-S128"
target triple = "x86_64-pc-linux-gnu"

%struct.IndexTupleData = type { %struct.ItemPointerData, i16 }
%struct.ItemPointerData = type { %struct.BlockIdData, i16 }
%struct.BlockIdData = type { i16, i16 }
%struct.BTVacuumPostingData = type { ptr, i16, i16, [0 x i16] }

; Function Attrs: inlinehint nounwind uwtable
define internal void @BlockIdSet(ptr noundef %0, i32 noundef %1) #2 {
  %3 = alloca ptr, align 8
  %4 = alloca i32, align 4
  store ptr %0, ptr %3, align 8
  store i32 %1, ptr %4, align 4
  %5 = load i32, ptr %4, align 4
  %6 = lshr i32 %5, 16
  %7 = trunc i32 %6 to i16
  %8 = load ptr, ptr %3, align 8
  %9 = getelementptr inbounds nuw %struct.BlockIdData, ptr %8, i32 0, i32 0
  store i16 %7, ptr %9, align 2
  %10 = load i32, ptr %4, align 4
  %11 = and i32 %10, 65535
  %12 = trunc i32 %11 to i16
  %13 = load ptr, ptr %3, align 8
  %14 = getelementptr inbounds nuw %struct.BlockIdData, ptr %13, i32 0, i32 1
  store i16 %12, ptr %14, align 2
  ret void
}

; Function Attrs: inlinehint nounwind uwtable
define internal i32 @BlockIdGetBlockNumber(ptr noundef %0) #2 {
  %2 = alloca ptr, align 8
  store ptr %0, ptr %2, align 8
  %3 = load ptr, ptr %2, align 8
  %4 = getelementptr inbounds nuw %struct.BlockIdData, ptr %3, i32 0, i32 0
  %5 = load i16, ptr %4, align 2
  %6 = zext i16 %5 to i32
  %7 = shl i32 %6, 16
  %8 = load ptr, ptr %2, align 8
  %9 = getelementptr inbounds nuw %struct.BlockIdData, ptr %8, i32 0, i32 1
  %10 = load i16, ptr %9, align 2
  %11 = zext i16 %10 to i32
  %12 = or i32 %7, %11
  ret i32 %12
}

; Function Attrs: inlinehint nounwind uwtable
define internal void @ItemPointerSetBlockNumber(ptr noundef %0, i32 noundef %1) #2 {
  %3 = alloca ptr, align 8
  %4 = alloca i32, align 4
  store ptr %0, ptr %3, align 8
  store i32 %1, ptr %4, align 4
  %5 = load ptr, ptr %3, align 8
  %6 = getelementptr inbounds nuw %struct.ItemPointerData, ptr %5, i32 0, i32 0
  %7 = load i32, ptr %4, align 4
  call void @BlockIdSet(ptr noundef %6, i32 noundef %7)
  ret void
}

; Function Attrs: inlinehint nounwind uwtable
define internal void @ItemPointerSetOffsetNumber(ptr noundef %0, i16 noundef zeroext %1) #2 {
  %3 = alloca ptr, align 8
  %4 = alloca i16, align 2
  store ptr %0, ptr %3, align 8
  store i16 %1, ptr %4, align 2
  %5 = load i16, ptr %4, align 2
  %6 = load ptr, ptr %3, align 8
  %7 = getelementptr inbounds nuw %struct.ItemPointerData, ptr %6, i32 0, i32 1
  store i16 %5, ptr %7, align 2
  ret void
}

; Function Attrs: inlinehint nounwind uwtable
define internal i32 @ItemPointerGetBlockNumberNoCheck(ptr noundef %0) #2 {
  %2 = alloca ptr, align 8
  store ptr %0, ptr %2, align 8
  %3 = load ptr, ptr %2, align 8
  %4 = getelementptr inbounds nuw %struct.ItemPointerData, ptr %3, i32 0, i32 0
  %5 = call i32 @BlockIdGetBlockNumber(ptr noundef %4)
  ret i32 %5
}

; Function Attrs: inlinehint nounwind uwtable
define internal zeroext i16 @ItemPointerGetOffsetNumberNoCheck(ptr noundef %0) #2 {
  %2 = alloca ptr, align 8
  store ptr %0, ptr %2, align 8
  %3 = load ptr, ptr %2, align 8
  %4 = getelementptr inbounds nuw %struct.ItemPointerData, ptr %3, i32 0, i32 1
  %5 = load i16, ptr %4, align 2
  ret i16 %5
}

; Function Attrs: inlinehint nounwind uwtable
define internal ptr @BTreeTupleGetPostingN(ptr noundef %0, i32 noundef %1) #2 {
  %3 = alloca ptr, align 8
  %4 = alloca i32, align 4
  store ptr %0, ptr %3, align 8
  store i32 %1, ptr %4, align 4
  %5 = load ptr, ptr %3, align 8
  %6 = call ptr @BTreeTupleGetPosting(ptr noundef %5)
  %7 = load i32, ptr %4, align 4
  %8 = sext i32 %7 to i64
  %9 = getelementptr inbounds %struct.ItemPointerData, ptr %6, i64 %8
  ret ptr %9
}

; Function Attrs: inlinehint nounwind uwtable
define internal ptr @BTreeTupleGetPosting(ptr noundef %0) #2 {
  %2 = alloca ptr, align 8
  store ptr %0, ptr %2, align 8
  %3 = load ptr, ptr %2, align 8
  %4 = load ptr, ptr %2, align 8
  %5 = call i32 @BTreeTupleGetPostingOffset(ptr noundef %4)
  %6 = zext i32 %5 to i64
  %7 = getelementptr inbounds nuw i8, ptr %3, i64 %6
  ret ptr %7
}

; Function Attrs: inlinehint nounwind uwtable
define internal void @BTreeTupleSetPosting(ptr noundef %0, i16 noundef zeroext %1, i32 noundef %2) #2 {
  %4 = alloca ptr, align 8
  %5 = alloca i16, align 2
  %6 = alloca i32, align 4
  store ptr %0, ptr %4, align 8
  store i16 %1, ptr %5, align 2
  store i32 %2, ptr %6, align 4
  %7 = load ptr, ptr %4, align 8
  %8 = getelementptr inbounds nuw %struct.IndexTupleData, ptr %7, i32 0, i32 1
  %9 = load i16, ptr %8, align 2
  %10 = zext i16 %9 to i32
  %11 = or i32 %10, 8192
  %12 = trunc i32 %11 to i16
  store i16 %12, ptr %8, align 2
  %13 = load ptr, ptr %4, align 8
  %14 = getelementptr inbounds nuw %struct.IndexTupleData, ptr %13, i32 0, i32 0
  %15 = load i16, ptr %5, align 2
  %16 = zext i16 %15 to i32
  %17 = or i32 %16, 8192
  %18 = trunc i32 %17 to i16
  call void @ItemPointerSetOffsetNumber(ptr noundef %14, i16 noundef zeroext %18)
  %19 = load ptr, ptr %4, align 8
  %20 = getelementptr inbounds nuw %struct.IndexTupleData, ptr %19, i32 0, i32 0
  %21 = load i32, ptr %6, align 4
  call void @ItemPointerSetBlockNumber(ptr noundef %20, i32 noundef %21)
  ret void
}

; Function Attrs: inlinehint nounwind uwtable
define internal i32 @BTreeTupleGetPostingOffset(ptr noundef %0) #2 {
  %2 = alloca ptr, align 8
  store ptr %0, ptr %2, align 8
  %3 = load ptr, ptr %2, align 8
  %4 = getelementptr inbounds nuw %struct.IndexTupleData, ptr %3, i32 0, i32 0
  %5 = call i32 @ItemPointerGetBlockNumberNoCheck(ptr noundef %4)
  ret i32 %5
}

; Function Attrs: inlinehint nounwind uwtable
define internal zeroext i16 @BTreeTupleGetNPosting(ptr noundef %0) #2 {
  %2 = alloca ptr, align 8
  %3 = alloca i16, align 2
  store ptr %0, ptr %2, align 8
  call void @llvm.lifetime.start.p0(i64 2, ptr %3) #6
  %4 = load ptr, ptr %2, align 8
  %5 = getelementptr inbounds nuw %struct.IndexTupleData, ptr %4, i32 0, i32 0
  %6 = call zeroext i16 @ItemPointerGetOffsetNumberNoCheck(ptr noundef %5)
  store i16 %6, ptr %3, align 2
  %7 = load i16, ptr %3, align 2
  %8 = zext i16 %7 to i32
  %9 = and i32 %8, 4095
  %10 = trunc i32 %9 to i16
  call void @llvm.lifetime.end.p0(i64 2, ptr %3) #6
  ret i16 %10
}

; Function Attrs: nounwind uwtable
define dso_local void @_bt_update_posting(ptr noundef %0) #0 {
  %2 = alloca ptr, align 8
  %3 = alloca ptr, align 8
  %4 = alloca i32, align 4
  %5 = alloca i32, align 4
  %6 = alloca ptr, align 8
  %7 = alloca i32, align 4
  %8 = alloca i32, align 4
  %9 = alloca i32, align 4
  %10 = alloca ptr, align 8
  %11 = alloca i32, align 4
  store ptr %0, ptr %2, align 8
  call void @llvm.lifetime.start.p0(i64 8, ptr %3) #6
  %12 = load ptr, ptr %2, align 8
  %13 = getelementptr inbounds nuw %struct.BTVacuumPostingData, ptr %12, i32 0, i32 0
  %14 = load ptr, ptr %13, align 8
  store ptr %14, ptr %3, align 8
  call void @llvm.lifetime.start.p0(i64 4, ptr %4) #6
  call void @llvm.lifetime.start.p0(i64 4, ptr %5) #6
  call void @llvm.lifetime.start.p0(i64 8, ptr %6) #6
  call void @llvm.lifetime.start.p0(i64 4, ptr %7) #6
  call void @llvm.lifetime.start.p0(i64 4, ptr %8) #6
  call void @llvm.lifetime.start.p0(i64 4, ptr %9) #6
  call void @llvm.lifetime.start.p0(i64 8, ptr %10) #6
  %15 = load ptr, ptr %3, align 8
  %16 = call zeroext i16 @BTreeTupleGetNPosting(ptr noundef %15)
  %17 = zext i16 %16 to i32
  %18 = load ptr, ptr %2, align 8
  %19 = getelementptr inbounds nuw %struct.BTVacuumPostingData, ptr %18, i32 0, i32 2
  %20 = load i16, ptr %19, align 2
  %21 = zext i16 %20 to i32
  %22 = sub i32 %17, %21
  store i32 %22, ptr %7, align 4
  %23 = load ptr, ptr %3, align 8
  %24 = call i32 @BTreeTupleGetPostingOffset(ptr noundef %23)
  store i32 %24, ptr %4, align 4
  %25 = load i32, ptr %7, align 4
  %26 = icmp sgt i32 %25, 1
  br i1 %26, label %27, label %37

27:                                               ; preds = %1
  %28 = load i32, ptr %4, align 4
  %29 = zext i32 %28 to i64
  %30 = load i32, ptr %7, align 4
  %31 = sext i32 %30 to i64
  %32 = mul i64 %31, 6
  %33 = add i64 %29, %32
  %34 = add i64 %33, 7
  %35 = and i64 %34, -8
  %36 = trunc i64 %35 to i32
  store i32 %36, ptr %5, align 4
  br label %39

37:                                               ; preds = %1
  %38 = load i32, ptr %4, align 4
  store i32 %38, ptr %5, align 4
  br label %39

39:                                               ; preds = %37, %27
  %40 = load i32, ptr %5, align 4
  %41 = zext i32 %40 to i64
  %42 = call ptr @palloc0(i64 noundef %41)
  store ptr %42, ptr %6, align 8
  %43 = load ptr, ptr %6, align 8
  %44 = load ptr, ptr %3, align 8
  %45 = load i32, ptr %4, align 4
  %46 = zext i32 %45 to i64
  call void @llvm.memcpy.p0.p0.i64(ptr align 2 %43, ptr align 2 %44, i64 %46, i1 false)
  %47 = load ptr, ptr %6, align 8
  %48 = getelementptr inbounds nuw %struct.IndexTupleData, ptr %47, i32 0, i32 1
  %49 = load i16, ptr %48, align 2
  %50 = zext i16 %49 to i32
  %51 = and i32 %50, -8192
  %52 = trunc i32 %51 to i16
  store i16 %52, ptr %48, align 2
  %53 = load i32, ptr %5, align 4
  %54 = load ptr, ptr %6, align 8
  %55 = getelementptr inbounds nuw %struct.IndexTupleData, ptr %54, i32 0, i32 1
  %56 = load i16, ptr %55, align 2
  %57 = zext i16 %56 to i32
  %58 = or i32 %57, %53
  %59 = trunc i32 %58 to i16
  store i16 %59, ptr %55, align 2
  %60 = load i32, ptr %7, align 4
  %61 = icmp sgt i32 %60, 1
  br i1 %61, label %62, label %69

62:                                               ; preds = %39
  %63 = load ptr, ptr %6, align 8
  %64 = load i32, ptr %7, align 4
  %65 = trunc i32 %64 to i16
  %66 = load i32, ptr %4, align 4
  call void @BTreeTupleSetPosting(ptr noundef %63, i16 noundef zeroext %65, i32 noundef %66)
  %67 = load ptr, ptr %6, align 8
  %68 = call ptr @BTreeTupleGetPosting(ptr noundef %67)
  store ptr %68, ptr %10, align 8
  br label %78

69:                                               ; preds = %39
  %70 = load ptr, ptr %6, align 8
  %71 = getelementptr inbounds nuw %struct.IndexTupleData, ptr %70, i32 0, i32 1
  %72 = load i16, ptr %71, align 2
  %73 = zext i16 %72 to i32
  %74 = and i32 %73, -8193
  %75 = trunc i32 %74 to i16
  store i16 %75, ptr %71, align 2
  %76 = load ptr, ptr %6, align 8
  %77 = getelementptr inbounds nuw %struct.IndexTupleData, ptr %76, i32 0, i32 0
  store ptr %77, ptr %10, align 8
  br label %78

78:                                               ; preds = %69, %62
  store i32 0, ptr %8, align 4
  store i32 0, ptr %9, align 4
  call void @llvm.lifetime.start.p0(i64 4, ptr %11) #6
  store i32 0, ptr %11, align 4
  br label %79

79:                                               ; preds = %115, %78
  %80 = load i32, ptr %11, align 4
  %81 = load ptr, ptr %3, align 8
  %82 = call zeroext i16 @BTreeTupleGetNPosting(ptr noundef %81)
  %83 = zext i16 %82 to i32
  %84 = icmp slt i32 %80, %83
  br i1 %84, label %86, label %85

85:                                               ; preds = %79
  call void @llvm.lifetime.end.p0(i64 4, ptr %11) #6
  br label %118

86:                                               ; preds = %79
  %87 = load i32, ptr %9, align 4
  %88 = load ptr, ptr %2, align 8
  %89 = getelementptr inbounds nuw %struct.BTVacuumPostingData, ptr %88, i32 0, i32 2
  %90 = load i16, ptr %89, align 2
  %91 = zext i16 %90 to i32
  %92 = icmp slt i32 %87, %91
  br i1 %92, label %93, label %106

93:                                               ; preds = %86
  %94 = load ptr, ptr %2, align 8
  %95 = getelementptr inbounds nuw %struct.BTVacuumPostingData, ptr %94, i32 0, i32 3
  %96 = load i32, ptr %9, align 4
  %97 = sext i32 %96 to i64
  %98 = getelementptr inbounds [0 x i16], ptr %95, i64 0, i64 %97
  %99 = load i16, ptr %98, align 2
  %100 = zext i16 %99 to i32
  %101 = load i32, ptr %11, align 4
  %102 = icmp eq i32 %100, %101
  br i1 %102, label %103, label %106

103:                                              ; preds = %93
  %104 = load i32, ptr %9, align 4
  %105 = add i32 %104, 1
  store i32 %105, ptr %9, align 4
  br label %115

106:                                              ; preds = %93, %86
  %107 = load ptr, ptr %10, align 8
  %108 = load i32, ptr %8, align 4
  %109 = add i32 %108, 1
  store i32 %109, ptr %8, align 4
  %110 = sext i32 %108 to i64
  %111 = getelementptr inbounds %struct.ItemPointerData, ptr %107, i64 %110
  %112 = load ptr, ptr %3, align 8
  %113 = load i32, ptr %11, align 4
  %114 = call ptr @BTreeTupleGetPostingN(ptr noundef %112, i32 noundef %113)
  call void @llvm.memcpy.p0.p0.i64(ptr align 2 %111, ptr align 2 %114, i64 6, i1 false)
  br label %115

115:                                              ; preds = %106, %103
  %116 = load i32, ptr %11, align 4
  %117 = add i32 %116, 1
  store i32 %117, ptr %11, align 4
  br label %79, !llvm.loop !11

118:                                              ; preds = %85
  %119 = load ptr, ptr %6, align 8
  %120 = load ptr, ptr %2, align 8
  %121 = getelementptr inbounds nuw %struct.BTVacuumPostingData, ptr %120, i32 0, i32 0
  store ptr %119, ptr %121, align 8
  call void @llvm.lifetime.end.p0(i64 8, ptr %10) #6
  call void @llvm.lifetime.end.p0(i64 4, ptr %9) #6
  call void @llvm.lifetime.end.p0(i64 4, ptr %8) #6
  call void @llvm.lifetime.end.p0(i64 4, ptr %7) #6
  call void @llvm.lifetime.end.p0(i64 8, ptr %6) #6
  call void @llvm.lifetime.end.p0(i64 4, ptr %5) #6
  call void @llvm.lifetime.end.p0(i64 4, ptr %4) #6
  call void @llvm.lifetime.end.p0(i64 8, ptr %3) #6
  ret void
}