; Function Attrs: nounwind uwtable
define dso_local void @_bt_update_posting(ptr noundef captures(none) %0) local_unnamed_addr #0 {
  %2 = load ptr, ptr %0, align 8
  %3 = getelementptr i8, ptr %2, i64 4
  %.val43 = load i16, ptr %3, align 2
  %4 = and i16 %.val43, 4095
  %5 = zext nneg i16 %4 to i32
  %6 = getelementptr inbounds nuw i8, ptr %0, i64 10
  %7 = load i16, ptr %6, align 2
  %8 = zext i16 %7 to i32
  %9 = sub nsw i32 %5, %8
  %.val44 = load i16, ptr %2, align 2
  %10 = getelementptr i8, ptr %2, i64 2
  %.val45 = load i16, ptr %10, align 2
  %11 = zext i16 %.val44 to i32
  %12 = shl nuw i32 %11, 16
  %13 = zext i16 %.val45 to i32
  %14 = or disjoint i32 %12, %13
  %15 = icmp sgt i32 %9, 1
  %16 = mul nuw nsw i32 %9, 6
  %17 = add nuw nsw i32 %16, 7
  %18 = add i32 %17, %14
  %19 = and i32 %18, -8
  %.040 = select i1 %15, i32 %19, i32 %14
  %20 = zext i32 %.040 to i64
  %21 = tail call ptr @palloc0(i64 noundef %20) #10
  %22 = zext i32 %14 to i64
  tail call void @llvm.memcpy.p0.p0.i64(ptr align 2 %21, ptr nonnull align 2 %2, i64 %22, i1 false)
  %23 = getelementptr inbounds nuw i8, ptr %21, i64 6
  %24 = load i16, ptr %23, align 2
  %25 = and i16 %24, -8192
  %26 = trunc i32 %.040 to i16
  %27 = or i16 %25, %26
  br i1 %15, label %28, label %39

28:                                               ; preds = %1
  %29 = trunc nuw nsw i32 %9 to i16
  %30 = or i16 %27, 8192
  %31 = or i16 %29, 8192
  %32 = getelementptr inbounds nuw i8, ptr %21, i64 4
  store i16 %31, ptr %32, align 2
  store i16 %.val44, ptr %21, align 2
  %33 = getelementptr inbounds nuw i8, ptr %21, i64 2
  store i16 %.val45, ptr %33, align 2
  %34 = zext i16 %.val44 to i64
  %35 = shl nuw nsw i64 %34, 16
  %36 = zext i16 %.val45 to i64
  %37 = or disjoint i64 %35, %36
  %38 = getelementptr inbounds nuw i8, ptr %21, i64 %37
  br label %41

39:                                               ; preds = %1
  %40 = and i16 %27, -8193
  br label %41

41:                                               ; preds = %39, %28
  %.sink = phi i16 [ %30, %28 ], [ %40, %39 ]
  %.036 = phi ptr [ %38, %28 ], [ %21, %39 ]
  store i16 %.sink, ptr %23, align 2
  %.val46 = load i16, ptr %3, align 2
  %42 = and i16 %.val46, 4095
  %.not = icmp eq i16 %42, 0
  br i1 %.not, label %._crit_edge, label %.lr.ph

.lr.ph:                                           ; preds = %41
  %43 = getelementptr inbounds nuw i8, ptr %0, i64 12
  br label %44

._crit_edge:                                      ; preds = %66, %41
  store ptr %21, ptr %0, align 8
  ret void

44:                                               ; preds = %.lr.ph, %66
  %.val51 = phi i16 [ %.val46, %.lr.ph ], [ %.val, %66 ]
  %indvars.iv = phi i64 [ 0, %.lr.ph ], [ %indvars.iv.next, %66 ]
  %.03748 = phi i32 [ 0, %.lr.ph ], [ %.1, %66 ]
  %.03847 = phi i32 [ 0, %.lr.ph ], [ %.139, %66 ]
  %45 = load i16, ptr %6, align 2
  %46 = zext i16 %45 to i32
  %47 = icmp slt i32 %.03748, %46
  br i1 %47, label %48, label %56

48:                                               ; preds = %44
  %49 = sext i32 %.03748 to i64
  %50 = getelementptr inbounds [0 x i16], ptr %43, i64 0, i64 %49
  %51 = load i16, ptr %50, align 2
  %52 = zext i16 %51 to i64
  %53 = icmp eq i64 %indvars.iv, %52
  br i1 %53, label %54, label %56

54:                                               ; preds = %48
  %55 = add nsw i32 %.03748, 1
  br label %66

56:                                               ; preds = %48, %44
  %57 = add i32 %.03847, 1
  %58 = sext i32 %.03847 to i64
  %59 = getelementptr inbounds %struct.ItemPointerData, ptr %.036, i64 %58
  %.val.i.i = load i16, ptr %2, align 2
  %.val2.i.i = load i16, ptr %10, align 2
  %60 = zext i16 %.val.i.i to i64
  %61 = shl nuw nsw i64 %60, 16
  %62 = zext i16 %.val2.i.i to i64
  %63 = or disjoint i64 %61, %62
  %64 = getelementptr inbounds nuw i8, ptr %2, i64 %63
  %65 = getelementptr inbounds nuw %struct.ItemPointerData, ptr %64, i64 %indvars.iv
  tail call void @llvm.memcpy.p0.p0.i64(ptr noundef nonnull align 2 dereferenceable(6) %59, ptr noundef nonnull align 2 dereferenceable(6) %65, i64 6, i1 false)
  %.val.pre = load i16, ptr %3, align 2
  br label %66

66:                                               ; preds = %56, %54
  %.val = phi i16 [ %.val51, %54 ], [ %.val.pre, %56 ]
  %.139 = phi i32 [ %.03847, %54 ], [ %57, %56 ]
  %.1 = phi i32 [ %55, %54 ], [ %.03748, %56 ]
  %indvars.iv.next = add nuw nsw i64 %indvars.iv, 1
  %67 = and i16 %.val, 4095
  %68 = zext nneg i16 %67 to i64
  %69 = icmp samesign ult i64 %indvars.iv.next, %68
  br i1 %69, label %44, label %._crit_edge, !llvm.loop !11
}